target datalayout = "e-m:e-p270:32:32-p271:32:32-p272:64:64-i64:64-i128:128-f80:128-n8:16:32:64-S128"
target triple = "x86_64-pc-linux-gnu"

%struct.PNGDSPContext = type { ptr, ptr }
%struct.PNGDecContext = type { %struct.PNGDSPContext, ptr, %struct.GetByteContext, %struct.ProgressFrame, %struct.ProgressFrame, ptr, [82 x i8], ptr, i64, i32, i32, [2 x i32], [3 x [2 x i32]], i32, i32, i32, i32, i32, i32, i32, i32, i32, i32, [3 x [2 x i16]], [2 x i16], i32, i32, i32, i32, i32, i32, i32, i32, i32, i32, i8, i8, i32, i32, i32, i32, i32, i32, i32, i32, i32, [6 x i8], i32, [256 x i32], ptr, ptr, i32, ptr, i32, ptr, i32, i32, i32, i32, i32, i32, %struct.FFZStream }
%struct.GetByteContext = type { ptr, ptr, ptr }
%struct.ProgressFrame = type { ptr, ptr }
%struct.FFZStream = type { %struct.z_stream_s, i32 }
%struct.z_stream_s = type { ptr, i32, i64, ptr, i32, i64, ptr, ptr, ptr, ptr, ptr, i32, i64, i64 }
%struct.AVBPrint = type { ptr, i32, i32, i32, [1 x i8], [1000 x i8] }

; Function Attrs: nounwind uwtable
define internal ptr @iso88591_to_utf8(ptr noundef %0, i64 noundef %1) #0 {
  %3 = alloca ptr, align 8
  %4 = alloca ptr, align 8
  %5 = alloca i64, align 8
  %6 = alloca i64, align 8
  %7 = alloca i64, align 8
  %8 = alloca ptr, align 8
  %9 = alloca ptr, align 8
  %10 = alloca i32, align 4
  store ptr %0, ptr %4, align 8, !tbaa !4
  store i64 %1, ptr %5, align 8, !tbaa !95
  call void @llvm.lifetime.start.p0(i64 8, ptr %6) #13
  store i64 0, ptr %6, align 8, !tbaa !95
  call void @llvm.lifetime.start.p0(i64 8, ptr %7) #13
  call void @llvm.lifetime.start.p0(i64 8, ptr %8) #13
  call void @llvm.lifetime.start.p0(i64 8, ptr %9) #13
  store i64 0, ptr %7, align 8, !tbaa !95
  br label %11

11:                                               ; preds = %29, %2
  %12 = load i64, ptr %7, align 8, !tbaa !95
  %13 = load i64, ptr %5, align 8, !tbaa !95
  %14 = icmp ult i64 %12, %13
  br i1 %14, label %15, label %32

15:                                               ; preds = %11
  %16 = load ptr, ptr %4, align 8, !tbaa !4
  %17 = load i64, ptr %7, align 8, !tbaa !95
  %18 = getelementptr inbounds nuw i8, ptr %16, i64 %17
  %19 = load i8, ptr %18, align 1, !tbaa !11
  %20 = sext i8 %19 to i32
  %21 = and i32 %20, 128
  %22 = icmp ne i32 %21, 0
  %23 = xor i1 %22, true
  %24 = xor i1 %23, true
  %25 = zext i1 %24 to i32
  %26 = sext i32 %25 to i64
  %27 = load i64, ptr %6, align 8, !tbaa !95
  %28 = add i64 %27, %26
  store i64 %28, ptr %6, align 8, !tbaa !95
  br label %29

29:                                               ; preds = %15
  %30 = load i64, ptr %7, align 8, !tbaa !95
  %31 = add i64 %30, 1
  store i64 %31, ptr %7, align 8, !tbaa !95
  br label %11, !llvm.loop !248

32:                                               ; preds = %11
  %33 = load i64, ptr %5, align 8, !tbaa !95
  %34 = icmp eq i64 %33, -1
  br i1 %34, label %41, label %35

35:                                               ; preds = %32
  %36 = load i64, ptr %6, align 8, !tbaa !95
  %37 = load i64, ptr %5, align 8, !tbaa !95
  %38 = sub i64 -1, %37
  %39 = sub i64 %38, 1
  %40 = icmp ugt i64 %36, %39
  br i1 %40, label %41, label %42

41:                                               ; preds = %35, %32
  store ptr null, ptr %3, align 8
  store i32 1, ptr %10, align 4
  br label %100

42:                                               ; preds = %35
  %43 = load i64, ptr %5, align 8, !tbaa !95
  %44 = load i64, ptr %6, align 8, !tbaa !95
  %45 = add i64 %43, %44
  %46 = add i64 %45, 1
  %47 = call noalias ptr @av_malloc(i64 noundef %46)
  store ptr %47, ptr %8, align 8, !tbaa !4
  store ptr %47, ptr %9, align 8, !tbaa !4
  %48 = load ptr, ptr %8, align 8, !tbaa !4
  %49 = icmp ne ptr %48, null
  br i1 %49, label %51, label %50

50:                                               ; preds = %42
  store ptr null, ptr %3, align 8
  store i32 1, ptr %10, align 4
  br label %100

51:                                               ; preds = %42
  store i64 0, ptr %7, align 8, !tbaa !95
  br label %52

52:                                               ; preds = %93, %51
  %53 = load i64, ptr %7, align 8, !tbaa !95
  %54 = load i64, ptr %5, align 8, !tbaa !95
  %55 = icmp ult i64 %53, %54
  br i1 %55, label %56, label %96

56:                                               ; preds = %52
  %57 = load ptr, ptr %4, align 8, !tbaa !4
  %58 = load i64, ptr %7, align 8, !tbaa !95
  %59 = getelementptr inbounds nuw i8, ptr %57, i64 %58
  %60 = load i8, ptr %59, align 1, !tbaa !11
  %61 = sext i8 %60 to i32
  %62 = and i32 %61, 128
  %63 = icmp ne i32 %62, 0
  br i1 %63, label %64, label %85

64:                                               ; preds = %56
  %65 = load ptr, ptr %4, align 8, !tbaa !4
  %66 = load i64, ptr %7, align 8, !tbaa !95
  %67 = getelementptr inbounds nuw i8, ptr %65, i64 %66
  %68 = load i8, ptr %67, align 1, !tbaa !11
  %69 = sext i8 %68 to i32
  %70 = ashr i32 %69, 6
  %71 = or i32 192, %70
  %72 = trunc i32 %71 to i8
  %73 = load ptr, ptr %9, align 8, !tbaa !4
  %74 = getelementptr inbounds nuw i8, ptr %73, i32 1
  store ptr %74, ptr %9, align 8, !tbaa !4
  store i8 %72, ptr %73, align 1, !tbaa !11
  %75 = load ptr, ptr %4, align 8, !tbaa !4
  %76 = load i64, ptr %7, align 8, !tbaa !95
  %77 = getelementptr inbounds nuw i8, ptr %75, i64 %76
  %78 = load i8, ptr %77, align 1, !tbaa !11
  %79 = sext i8 %78 to i32
  %80 = and i32 %79, 63
  %81 = or i32 128, %80
  %82 = trunc i32 %81 to i8
  %83 = load ptr, ptr %9, align 8, !tbaa !4
  %84 = getelementptr inbounds nuw i8, ptr %83, i32 1
  store ptr %84, ptr %9, align 8, !tbaa !4
  store i8 %82, ptr %83, align 1, !tbaa !11
  br label %92

85:                                               ; preds = %56
  %86 = load ptr, ptr %4, align 8, !tbaa !4
  %87 = load i64, ptr %7, align 8, !tbaa !95
  %88 = getelementptr inbounds nuw i8, ptr %86, i64 %87
  %89 = load i8, ptr %88, align 1, !tbaa !11
  %90 = load ptr, ptr %9, align 8, !tbaa !4
  %91 = getelementptr inbounds nuw i8, ptr %90, i32 1
  store ptr %91, ptr %9, align 8, !tbaa !4
  store i8 %89, ptr %90, align 1, !tbaa !11
  br label %92

92:                                               ; preds = %85, %64
  br label %93

93:                                               ; preds = %92
  %94 = load i64, ptr %7, align 8, !tbaa !95
  %95 = add i64 %94, 1
  store i64 %95, ptr %7, align 8, !tbaa !95
  br label %52, !llvm.loop !249

96:                                               ; preds = %52
  %97 = load ptr, ptr %9, align 8, !tbaa !4
  %98 = getelementptr inbounds nuw i8, ptr %97, i32 1
  store ptr %98, ptr %9, align 8, !tbaa !4
  store i8 0, ptr %97, align 1, !tbaa !11
  %99 = load ptr, ptr %8, align 8, !tbaa !4
  store ptr %99, ptr %3, align 8
  store i32 1, ptr %10, align 4
  br label %100

100:                                              ; preds = %96, %50, %41
  call void @llvm.lifetime.end.p0(i64 8, ptr %9) #13
  call void @llvm.lifetime.end.p0(i64 8, ptr %8) #13
  call void @llvm.lifetime.end.p0(i64 8, ptr %7) #13
  call void @llvm.lifetime.end.p0(i64 8, ptr %6) #13
  %101 = load ptr, ptr %3, align 8
  ret ptr %101
}

; Function Attrs: nounwind uwtable
define internal i32 @decode_text_chunk(ptr noundef %0, ptr noundef %1, i32 noundef %2) #0 {
  %4 = alloca i32, align 4
  %5 = alloca ptr, align 8
  %6 = alloca ptr, align 8
  %7 = alloca i32, align 4
  %8 = alloca i32, align 4
  %9 = alloca i32, align 4
  %10 = alloca ptr, align 8
  %11 = alloca ptr, align 8
  %12 = alloca ptr, align 8
  %13 = alloca ptr, align 8
  %14 = alloca ptr, align 8
  %15 = alloca ptr, align 8
  %16 = alloca ptr, align 8
  %17 = alloca i32, align 4
  %18 = alloca %struct.AVBPrint, align 8
  %19 = alloca i32, align 4
  store ptr %0, ptr %5, align 8, !tbaa !53
  store ptr %1, ptr %6, align 8, !tbaa !103
  store i32 %2, ptr %7, align 4, !tbaa !9
  call void @llvm.lifetime.start.p0(i64 4, ptr %8) #13
  call void @llvm.lifetime.start.p0(i64 4, ptr %9) #13
  call void @llvm.lifetime.start.p0(i64 8, ptr %10) #13
  %20 = load ptr, ptr %6, align 8, !tbaa !103
  %21 = getelementptr inbounds nuw %struct.GetByteContext, ptr %20, i32 0, i32 0
  %22 = load ptr, ptr %21, align 8, !tbaa !105
  store ptr %22, ptr %10, align 8, !tbaa !4
  call void @llvm.lifetime.start.p0(i64 8, ptr %11) #13
  %23 = load ptr, ptr %6, align 8, !tbaa !103
  %24 = getelementptr inbounds nuw %struct.GetByteContext, ptr %23, i32 0, i32 1
  %25 = load ptr, ptr %24, align 8, !tbaa !107
  store ptr %25, ptr %11, align 8, !tbaa !4
  call void @llvm.lifetime.start.p0(i64 8, ptr %12) #13
  %26 = load ptr, ptr %10, align 8, !tbaa !4
  store ptr %26, ptr %12, align 8, !tbaa !4
  call void @llvm.lifetime.start.p0(i64 8, ptr %13) #13
  %27 = load ptr, ptr %12, align 8, !tbaa !4
  %28 = load ptr, ptr %11, align 8, !tbaa !4
  %29 = load ptr, ptr %10, align 8, !tbaa !4
  %30 = ptrtoint ptr %28 to i64
  %31 = ptrtoint ptr %29 to i64
  %32 = sub i64 %30, %31
  %33 = call ptr @memchr(ptr noundef %27, i32 noundef 0, i64 noundef %32) #16
  store ptr %33, ptr %13, align 8, !tbaa !4
  call void @llvm.lifetime.start.p0(i64 8, ptr %14) #13
  store ptr null, ptr %14, align 8, !tbaa !4
  call void @llvm.lifetime.start.p0(i64 8, ptr %15) #13
  store ptr null, ptr %15, align 8, !tbaa !4
  call void @llvm.lifetime.start.p0(i64 8, ptr %16) #13
  call void @llvm.lifetime.start.p0(i64 4, ptr %17) #13
  call void @llvm.lifetime.start.p0(i64 1024, ptr %18) #13
  %34 = load ptr, ptr %13, align 8, !tbaa !4
  %35 = icmp ne ptr %34, null
  br i1 %35, label %37, label %36

36:                                               ; preds = %3
  store i32 -1094995529, ptr %4, align 4
  store i32 1, ptr %19, align 4
  br label %109

37:                                               ; preds = %3
  %38 = load ptr, ptr %13, align 8, !tbaa !4
  %39 = getelementptr inbounds i8, ptr %38, i64 1
  store ptr %39, ptr %10, align 8, !tbaa !4
  %40 = load i32, ptr %7, align 4, !tbaa !9
  %41 = icmp ne i32 %40, 0
  br i1 %41, label %42, label %70

42:                                               ; preds = %37
  %43 = load ptr, ptr %10, align 8, !tbaa !4
  %44 = load ptr, ptr %11, align 8, !tbaa !4
  %45 = icmp eq ptr %43, %44
  br i1 %45, label %46, label %47

46:                                               ; preds = %42
  store i32 -1094995529, ptr %4, align 4
  store i32 1, ptr %19, align 4
  br label %109

47:                                               ; preds = %42
  %48 = load ptr, ptr %10, align 8, !tbaa !4
  %49 = getelementptr inbounds nuw i8, ptr %48, i32 1
  store ptr %49, ptr %10, align 8, !tbaa !4
  %50 = load i8, ptr %48, align 1, !tbaa !11
  %51 = zext i8 %50 to i32
  store i32 %51, ptr %9, align 4, !tbaa !9
  %52 = load i32, ptr %9, align 4, !tbaa !9
  %53 = icmp ne i32 %52, 0
  br i1 %53, label %54, label %55

54:                                               ; preds = %47
  store i32 -1094995529, ptr %4, align 4
  store i32 1, ptr %19, align 4
  br label %109

55:                                               ; preds = %47
  %56 = load ptr, ptr %10, align 8, !tbaa !4
  %57 = load ptr, ptr %11, align 8, !tbaa !4
  %58 = load ptr, ptr %5, align 8, !tbaa !53
  %59 = getelementptr inbounds nuw %struct.PNGDecContext, ptr %58, i32 0, i32 1
  %60 = load ptr, ptr %59, align 8, !tbaa !77
  %61 = call i32 @decode_zbuf(ptr noundef %18, ptr noundef %56, ptr noundef %57, ptr noundef %60)
  store i32 %61, ptr %8, align 4, !tbaa !9
  %62 = icmp slt i32 %61, 0
  br i1 %62, label %63, label %65

63:                                               ; preds = %55
  %64 = load i32, ptr %8, align 4, !tbaa !9
  store i32 %64, ptr %4, align 4
  store i32 1, ptr %19, align 4
  br label %109

65:                                               ; preds = %55
  %66 = getelementptr inbounds nuw %struct.AVBPrint, ptr %18, i32 0, i32 0
  %67 = load ptr, ptr %66, align 8, !tbaa !180
  store ptr %67, ptr %16, align 8, !tbaa !4
  %68 = getelementptr inbounds nuw %struct.AVBPrint, ptr %18, i32 0, i32 1
  %69 = load i32, ptr %68, align 8, !tbaa !182
  store i32 %69, ptr %17, align 4, !tbaa !9
  br label %78

70:                                               ; preds = %37
  %71 = load ptr, ptr %10, align 8, !tbaa !4
  store ptr %71, ptr %16, align 8, !tbaa !4
  %72 = load ptr, ptr %11, align 8, !tbaa !4
  %73 = load ptr, ptr %10, align 8, !tbaa !4
  %74 = ptrtoint ptr %72 to i64
  %75 = ptrtoint ptr %73 to i64
  %76 = sub i64 %74, %75
  %77 = trunc i64 %76 to i32
  store i32 %77, ptr %17, align 4, !tbaa !9
  br label %78

78:                                               ; preds = %70, %65
  %79 = load ptr, ptr %16, align 8, !tbaa !4
  %80 = load i32, ptr %17, align 4, !tbaa !9
  %81 = zext i32 %80 to i64
  %82 = call ptr @iso88591_to_utf8(ptr noundef %79, i64 noundef %81)
  store ptr %82, ptr %15, align 8, !tbaa !4
  %83 = load i32, ptr %7, align 4, !tbaa !9
  %84 = icmp ne i32 %83, 0
  br i1 %84, label %85, label %87

85:                                               ; preds = %78
  %86 = call i32 @av_bprint_finalize(ptr noundef %18, ptr noundef null)
  br label %87

87:                                               ; preds = %85, %78
  %88 = load ptr, ptr %15, align 8, !tbaa !4
  %89 = icmp ne ptr %88, null
  br i1 %89, label %91, label %90

90:                                               ; preds = %87
  store i32 -12, ptr %4, align 4
  store i32 1, ptr %19, align 4
  br label %109

91:                                               ; preds = %87
  %92 = load ptr, ptr %12, align 8, !tbaa !4
  %93 = load ptr, ptr %13, align 8, !tbaa !4
  %94 = load ptr, ptr %12, align 8, !tbaa !4
  %95 = ptrtoint ptr %93 to i64
  %96 = ptrtoint ptr %94 to i64
  %97 = sub i64 %95, %96
  %98 = call ptr @iso88591_to_utf8(ptr noundef %92, i64 noundef %97)
  store ptr %98, ptr %14, align 8, !tbaa !4
  %99 = load ptr, ptr %14, align 8, !tbaa !4
  %100 = icmp ne ptr %99, null
  br i1 %100, label %103, label %101

101:                                              ; preds = %91
  %102 = load ptr, ptr %15, align 8, !tbaa !4
  call void @av_free(ptr noundef %102)
  store i32 -12, ptr %4, align 4
  store i32 1, ptr %19, align 4
  br label %109

103:                                              ; preds = %91
  %104 = load ptr, ptr %5, align 8, !tbaa !53
  %105 = getelementptr inbounds nuw %struct.PNGDecContext, ptr %104, i32 0, i32 5
  %106 = load ptr, ptr %14, align 8, !tbaa !4
  %107 = load ptr, ptr %15, align 8, !tbaa !4
  %108 = call i32 @av_dict_set(ptr noundef %105, ptr noundef %106, ptr noundef %107, i32 noundef 12)
  store i32 0, ptr %4, align 4
  store i32 1, ptr %19, align 4
  br label %109

109:                                              ; preds = %103, %101, %90, %63, %54, %46, %36
  call void @llvm.lifetime.end.p0(i64 1024, ptr %18) #13
  call void @llvm.lifetime.end.p0(i64 4, ptr %17) #13
  call void @llvm.lifetime.end.p0(i64 8, ptr %16) #13
  call void @llvm.lifetime.end.p0(i64 8, ptr %15) #13
  call void @llvm.lifetime.end.p0(i64 8, ptr %14) #13
  call void @llvm.lifetime.end.p0(i64 8, ptr %13) #13
  call void @llvm.lifetime.end.p0(i64 8, ptr %12) #13
  call void @llvm.lifetime.end.p0(i64 8, ptr %11) #13
  call void @llvm.lifetime.end.p0(i64 8, ptr %10) #13
  call void @llvm.lifetime.end.p0(i64 4, ptr %9) #13
  call void @llvm.lifetime.end.p0(i64 4, ptr %8) #13
  %110 = load i32, ptr %4, align 4
  ret i32 %110
}