; Function Attrs: nounwind uwtable
define internal fastcc range(i32 -2147483648, 1) i32 @decode_text_chunk(ptr noundef %0, ptr %.0.val, ptr %.8.val, i32 noundef range(i32 0, 2) %1) unnamed_addr #3 {
  %3 = alloca %struct.AVBPrint, align 8
  %4 = ptrtoint ptr %.8.val to i64
  %5 = ptrtoint ptr %.0.val to i64
  %6 = sub i64 %4, %5
  %7 = tail call ptr @memchr(ptr noundef %.0.val, i32 noundef 0, i64 noundef %6) #15
  call void @llvm.lifetime.start.p0(i64 1024, ptr nonnull %3) #13
  %.not = icmp eq ptr %7, null
  br i1 %.not, label %86, label %8

8:                                                ; preds = %2
  %9 = getelementptr inbounds nuw i8, ptr %7, i64 1
  %.not40 = icmp eq i32 %1, 0
  br i1 %.not40, label %24, label %10

10:                                               ; preds = %8
  %11 = icmp eq ptr %9, %.8.val
  br i1 %11, label %86, label %12

12:                                               ; preds = %10
  %13 = load i8, ptr %9, align 1, !tbaa !4
  %.not41 = icmp eq i8 %13, 0
  br i1 %.not41, label %14, label %86

14:                                               ; preds = %12
  %15 = getelementptr inbounds nuw i8, ptr %7, i64 2
  %16 = getelementptr inbounds nuw i8, ptr %0, i64 16
  %17 = load ptr, ptr %16, align 8, !tbaa !68
  %18 = call fastcc i32 @decode_zbuf(ptr noundef %3, ptr noundef nonnull %15, ptr noundef %.8.val, ptr noundef %17)
  %19 = icmp slt i32 %18, 0
  br i1 %19, label %86, label %20

20:                                               ; preds = %14
  %21 = load ptr, ptr %3, align 8, !tbaa !212
  %22 = getelementptr inbounds nuw i8, ptr %3, i64 8
  %23 = load i32, ptr %22, align 8, !tbaa !184
  br label %28

24:                                               ; preds = %8
  %25 = ptrtoint ptr %9 to i64
  %26 = sub i64 %4, %25
  %27 = trunc i64 %26 to i32
  br label %28

28:                                               ; preds = %24, %20
  %.032 = phi ptr [ %21, %20 ], [ %9, %24 ]
  %.0 = phi i32 [ %23, %20 ], [ %27, %24 ]
  %29 = zext i32 %.0 to i64
  %.not43.i = icmp eq i32 %.0, 0
  br i1 %.not43.i, label %._crit_edge.i.thread, label %.lr.ph.i

.lr.ph.i:                                         ; preds = %28, %.lr.ph.i
  %.02937.i = phi i64 [ %34, %.lr.ph.i ], [ 0, %28 ]
  %.03136.i = phi i64 [ %33, %.lr.ph.i ], [ 0, %28 ]
  %30 = getelementptr inbounds nuw i8, ptr %.032, i64 %.02937.i
  %31 = load i8, ptr %30, align 1, !tbaa !4
  %.lobit.i = lshr i8 %31, 7
  %32 = zext nneg i8 %.lobit.i to i64
  %33 = add i64 %.03136.i, %32
  %34 = add nuw nsw i64 %.02937.i, 1
  %exitcond.not.i = icmp eq i64 %34, %29
  br i1 %exitcond.not.i, label %._crit_edge.i, label %.lr.ph.i, !llvm.loop !213

._crit_edge.i:                                    ; preds = %.lr.ph.i
  %35 = sub nuw nsw i64 -2, %29
  %36 = icmp ugt i64 %33, %35
  br i1 %36, label %iso88591_to_utf8.exit, label %._crit_edge.i.thread

._crit_edge.i.thread:                             ; preds = %28, %._crit_edge.i
  %.031.lcssa.i2 = phi i64 [ %33, %._crit_edge.i ], [ 0, %28 ]
  %37 = add nuw nsw i64 %29, 1
  %38 = add i64 %37, %.031.lcssa.i2
  %39 = call noalias ptr @av_malloc(i64 noundef %38) #13
  %.not.i = icmp eq ptr %39, null
  br i1 %.not.i, label %iso88591_to_utf8.exit, label %.preheader.i

.preheader.i:                                     ; preds = %._crit_edge.i.thread
  br i1 %.not43.i, label %._crit_edge41.i, label %.lr.ph40.i

.lr.ph40.i:                                       ; preds = %.preheader.i, %51
  %.039.i = phi ptr [ %.1.i, %51 ], [ %39, %.preheader.i ]
  %.13038.i = phi i64 [ %52, %51 ], [ 0, %.preheader.i ]
  %40 = getelementptr inbounds nuw i8, ptr %.032, i64 %.13038.i
  %41 = load i8, ptr %40, align 1, !tbaa !4
  %.not34.i = icmp sgt i8 %41, -1
  br i1 %.not34.i, label %49, label %42

42:                                               ; preds = %.lr.ph40.i
  %43 = ashr i8 %41, 6
  %44 = getelementptr inbounds nuw i8, ptr %.039.i, i64 1
  store i8 %43, ptr %.039.i, align 1, !tbaa !4
  %45 = load i8, ptr %40, align 1, !tbaa !4
  %46 = and i8 %45, 63
  %47 = or disjoint i8 %46, -128
  %48 = getelementptr inbounds nuw i8, ptr %.039.i, i64 2
  store i8 %47, ptr %44, align 1, !tbaa !4
  br label %51

49:                                               ; preds = %.lr.ph40.i
  %50 = getelementptr inbounds nuw i8, ptr %.039.i, i64 1
  store i8 %41, ptr %.039.i, align 1, !tbaa !4
  br label %51

51:                                               ; preds = %49, %42
  %.1.i = phi ptr [ %48, %42 ], [ %50, %49 ]
  %52 = add nuw nsw i64 %.13038.i, 1
  %exitcond45.not.i = icmp eq i64 %52, %29
  br i1 %exitcond45.not.i, label %._crit_edge41.i, label %.lr.ph40.i, !llvm.loop !214

._crit_edge41.i:                                  ; preds = %51, %.preheader.i
  %.0.lcssa.i = phi ptr [ %39, %.preheader.i ], [ %.1.i, %51 ]
  store i8 0, ptr %.0.lcssa.i, align 1, !tbaa !4
  br label %iso88591_to_utf8.exit

iso88591_to_utf8.exit:                            ; preds = %._crit_edge.i, %._crit_edge.i.thread, %._crit_edge41.i
  %.028.i = phi ptr [ %39, %._crit_edge41.i ], [ null, %._crit_edge.i ], [ null, %._crit_edge.i.thread ]
  br i1 %.not40, label %55, label %53

53:                                               ; preds = %iso88591_to_utf8.exit
  %54 = call i32 @av_bprint_finalize(ptr noundef nonnull %3, ptr noundef null) #13
  br label %55

55:                                               ; preds = %53, %iso88591_to_utf8.exit
  %.not42 = icmp eq ptr %.028.i, null
  br i1 %.not42, label %86, label %56

56:                                               ; preds = %55
  %57 = ptrtoint ptr %7 to i64
  %58 = sub i64 %57, %5
  %.not43.i44 = icmp eq ptr %7, %.0.val
  br i1 %.not43.i44, label %._crit_edge.i50, label %.lr.ph.i45

.lr.ph.i45:                                       ; preds = %56, %.lr.ph.i45
  %.02937.i46 = phi i64 [ %63, %.lr.ph.i45 ], [ 0, %56 ]
  %.03136.i47 = phi i64 [ %62, %.lr.ph.i45 ], [ 0, %56 ]
  %59 = getelementptr inbounds nuw i8, ptr %.0.val, i64 %.02937.i46
  %60 = load i8, ptr %59, align 1, !tbaa !4
  %.lobit.i48 = lshr i8 %60, 7
  %61 = zext nneg i8 %.lobit.i48 to i64
  %62 = add i64 %.03136.i47, %61
  %63 = add nuw i64 %.02937.i46, 1
  %exitcond.not.i49 = icmp eq i64 %63, %58
  br i1 %exitcond.not.i49, label %._crit_edge.i50, label %.lr.ph.i45, !llvm.loop !213

._crit_edge.i50:                                  ; preds = %.lr.ph.i45, %56
  %.031.lcssa.i51 = phi i64 [ 0, %56 ], [ %62, %.lr.ph.i45 ]
  %64 = icmp eq i64 %58, -1
  %65 = sub nuw i64 -2, %58
  %66 = icmp ugt i64 %.031.lcssa.i51, %65
  %or.cond.i = select i1 %64, i1 true, i1 %66
  br i1 %or.cond.i, label %iso88591_to_utf8.exit63.thread, label %67

67:                                               ; preds = %._crit_edge.i50
  %68 = add nuw i64 %58, 1
  %69 = add i64 %68, %.031.lcssa.i51
  %70 = call noalias ptr @av_malloc(i64 noundef %69) #13
  %.not.i52 = icmp eq ptr %70, null
  br i1 %.not.i52, label %iso88591_to_utf8.exit63.thread, label %.preheader.i53

.preheader.i53:                                   ; preds = %67
  br i1 %.not43.i44, label %iso88591_to_utf8.exit63.thread5, label %.lr.ph40.i54

.lr.ph40.i54:                                     ; preds = %.preheader.i53, %82
  %.039.i55 = phi ptr [ %.1.i58, %82 ], [ %70, %.preheader.i53 ]
  %.13038.i56 = phi i64 [ %83, %82 ], [ 0, %.preheader.i53 ]
  %71 = getelementptr inbounds nuw i8, ptr %.0.val, i64 %.13038.i56
  %72 = load i8, ptr %71, align 1, !tbaa !4
  %.not34.i57 = icmp sgt i8 %72, -1
  br i1 %.not34.i57, label %80, label %73

73:                                               ; preds = %.lr.ph40.i54
  %74 = ashr i8 %72, 6
  %75 = getelementptr inbounds nuw i8, ptr %.039.i55, i64 1
  store i8 %74, ptr %.039.i55, align 1, !tbaa !4
  %76 = load i8, ptr %71, align 1, !tbaa !4
  %77 = and i8 %76, 63
  %78 = or disjoint i8 %77, -128
  %79 = getelementptr inbounds nuw i8, ptr %.039.i55, i64 2
  store i8 %78, ptr %75, align 1, !tbaa !4
  br label %82

80:                                               ; preds = %.lr.ph40.i54
  %81 = getelementptr inbounds nuw i8, ptr %.039.i55, i64 1
  store i8 %72, ptr %.039.i55, align 1, !tbaa !4
  br label %82

82:                                               ; preds = %80, %73
  %.1.i58 = phi ptr [ %79, %73 ], [ %81, %80 ]
  %83 = add nuw i64 %.13038.i56, 1
  %exitcond45.not.i59 = icmp eq i64 %83, %58
  br i1 %exitcond45.not.i59, label %iso88591_to_utf8.exit63.thread5, label %.lr.ph40.i54, !llvm.loop !214

iso88591_to_utf8.exit63.thread:                   ; preds = %67, %._crit_edge.i50
  call void @av_free(ptr noundef nonnull %.028.i) #13
  br label %86

iso88591_to_utf8.exit63.thread5:                  ; preds = %82, %.preheader.i53
  %.1.i58.lcssa.sink = phi ptr [ %70, %.preheader.i53 ], [ %.1.i58, %82 ]
  store i8 0, ptr %.1.i58.lcssa.sink, align 1, !tbaa !4
  %84 = getelementptr inbounds nuw i8, ptr %0, i64 80
  %85 = call i32 @av_dict_set(ptr noundef nonnull %84, ptr noundef nonnull %70, ptr noundef nonnull %.028.i, i32 noundef 12) #13
  br label %86

86:                                               ; preds = %55, %14, %12, %10, %2, %iso88591_to_utf8.exit63.thread5, %iso88591_to_utf8.exit63.thread
  %.033 = phi i32 [ 0, %iso88591_to_utf8.exit63.thread5 ], [ -12, %iso88591_to_utf8.exit63.thread ], [ -1094995529, %2 ], [ -1094995529, %10 ], [ -1094995529, %12 ], [ %18, %14 ], [ -12, %55 ]
  call void @llvm.lifetime.end.p0(i64 1024, ptr nonnull %3) #13
  ret i32 %.033
}